; Function Attrs: mustprogress uwtable
define void @_ZN6icu_7517AnyTransliteratorC2ERKNS_13UnicodeStringES3_S3_11UScriptCodeR10UErrorCode(ptr noundef nonnull align 8 dereferenceable(164) %this, ptr noundef nonnull align 8 dereferenceable(64) %id, ptr noundef nonnull align 8 dereferenceable(64) %theTarget, ptr noundef nonnull align 8 dereferenceable(64) %theVariant, i32 noundef %theTargetScript, ptr noundef nonnull align 4 dereferenceable(4) %ec) unnamed_addr #1 align 2 personality ptr @__gxx_personality_v0 {
invoke.cont:
  %srcChar.addr.i = alloca i16, align 2
  tail call void @_ZN6icu_7514TransliteratorC2ERKNS_13UnicodeStringEPNS_13UnicodeFilterE(ptr noundef nonnull align 8 dereferenceable(84) %this, ptr noundef nonnull align 8 dereferenceable(64) %id, ptr noundef null)
  store ptr getelementptr inbounds ({ [19 x ptr] }, ptr @_ZTVN6icu_7517AnyTransliteratorE, i64 0, i32 0, i64 2), ptr %this, align 8
  %target = getelementptr inbounds i8, ptr %this, i64 96
  store ptr getelementptr inbounds ({ [13 x ptr] }, ptr @_ZTVN6icu_7513UnicodeStringE, i64 0, i32 0, i64 2), ptr %target, align 8
  %fUnion2.i = getelementptr inbounds i8, ptr %this, i64 104
  store i16 2, ptr %fUnion2.i, align 8
  %targetScript = getelementptr inbounds i8, ptr %this, i64 160
  store i32 %theTargetScript, ptr %targetScript, align 8
  %call = invoke ptr @uhash_openSize_75(ptr noundef nonnull @uhash_hashLong_75, ptr noundef nonnull @uhash_compareLong_75, ptr noundef null, i32 noundef 7, ptr noundef nonnull %ec)
          to label %invoke.cont3 unwind label %lpad2

invoke.cont3:                                     ; preds = %invoke.cont
  %cache = getelementptr inbounds i8, ptr %this, i64 88
  store ptr %call, ptr %cache, align 8
  %0 = load i32, ptr %ec, align 4
  %cmp.i = icmp slt i32 %0, 1
  br i1 %cmp.i, label %if.end, label %if.end20

lpad2:                                            ; preds = %invoke.cont16, %if.then14, %invoke.cont7, %if.end, %invoke.cont
  %1 = landingpad { ptr, i32 }
          cleanup
  call void @_ZN6icu_7513UnicodeStringD1Ev(ptr noundef nonnull align 8 dereferenceable(64) %target) #9
  call void @_ZN6icu_7514TransliteratorD2Ev(ptr noundef nonnull align 8 dereferenceable(84) %this) #9
  resume { ptr, i32 } %1

if.end:                                           ; preds = %invoke.cont3
  %call8 = invoke ptr @uhash_setValueDeleter_75(ptr noundef %call, ptr noundef nonnull @_ZL21_deleteTransliteratorPv)
          to label %invoke.cont7 unwind label %lpad2

invoke.cont7:                                     ; preds = %if.end
  %call11 = invoke noundef nonnull align 8 dereferenceable(64) ptr @_ZN6icu_7513UnicodeStringaSERKS0_(ptr noundef nonnull align 8 dereferenceable(64) %target, ptr noundef nonnull align 8 dereferenceable(64) %theTarget)
          to label %invoke.cont12 unwind label %lpad2

invoke.cont12:                                    ; preds = %invoke.cont7
  %fUnion.i.i = getelementptr inbounds i8, ptr %theVariant, i64 8
  %2 = load i16, ptr %fUnion.i.i, align 8
  %cmp.i.i = icmp slt i16 %2, 0
  %3 = ashr i16 %2, 5
  %shr.i.i = sext i16 %3 to i32
  %fLength.i = getelementptr inbounds i8, ptr %theVariant, i64 12
  %4 = load i32, ptr %fLength.i, align 4
  %cond.i = select i1 %cmp.i.i, i32 %4, i32 %shr.i.i
  %cmp = icmp sgt i32 %cond.i, 0
  br i1 %cmp, label %if.then14, label %if.end20

if.then14:                                        ; preds = %invoke.cont12
  call void @llvm.lifetime.start.p0(i64 2, ptr nonnull %srcChar.addr.i)
  store i16 47, ptr %srcChar.addr.i, align 2
  %call.i4 = invoke noundef nonnull align 8 dereferenceable(64) ptr @_ZN6icu_7513UnicodeString8doAppendEPKDsii(ptr noundef nonnull align 8 dereferenceable(64) %target, ptr noundef nonnull %srcChar.addr.i, i32 noundef 0, i32 noundef 1)
          to label %invoke.cont16 unwind label %lpad2

invoke.cont16:                                    ; preds = %if.then14
  call void @llvm.lifetime.end.p0(i64 2, ptr nonnull %srcChar.addr.i)
  %5 = load i16, ptr %fUnion.i.i, align 8
  %cmp.i.i.i = icmp slt i16 %5, 0
  %6 = ashr i16 %5, 5
  %shr.i.i.i = sext i16 %6 to i32
  %7 = load i32, ptr %fLength.i, align 4
  %cond.i.i = select i1 %cmp.i.i.i, i32 %7, i32 %shr.i.i.i
  %call2.i5 = invoke noundef nonnull align 8 dereferenceable(64) ptr @_ZN6icu_7513UnicodeString8doAppendERKS0_ii(ptr noundef nonnull align 8 dereferenceable(64) %call.i4, ptr noundef nonnull align 8 dereferenceable(64) %theVariant, i32 noundef 0, i32 noundef %cond.i.i)
          to label %if.end20 unwind label %lpad2

if.end20:                                         ; preds = %invoke.cont16, %invoke.cont3, %invoke.cont12
  ret void
}